target datalayout = "e-m:e-p270:32:32-p271:32:32-p272:64:64-i64:64-i128:128-f80:128-n8:16:32:64-S128"
target triple = "x86_64-pc-linux-gnu"

%struct.AVMotionEstContext = type { ptr, ptr, i32, i32, i32, i32, i32, i32, i32, i32, i32, i32, i32, [2 x %struct.AVMotionEstPredictor], ptr }
%struct.AVMotionEstPredictor = type { [10 x [2 x i32]], i32 }

; Function Attrs: nounwind uwtable
define i64 @ff_me_search_esa(ptr noundef %0, i32 noundef %1, i32 noundef %2, ptr noundef %3) #0 {
  %5 = alloca i64, align 8
  %6 = alloca ptr, align 8
  %7 = alloca i32, align 4
  %8 = alloca i32, align 4
  %9 = alloca ptr, align 8
  %10 = alloca i32, align 4
  %11 = alloca i32, align 4
  %12 = alloca i32, align 4
  %13 = alloca i32, align 4
  %14 = alloca i32, align 4
  %15 = alloca i32, align 4
  %16 = alloca i64, align 8
  %17 = alloca i64, align 8
  %18 = alloca i32, align 4
  store ptr %0, ptr %6, align 8, !tbaa !4
  store i32 %1, ptr %7, align 4, !tbaa !9
  store i32 %2, ptr %8, align 4, !tbaa !9
  store ptr %3, ptr %9, align 8, !tbaa !32
  call void @llvm.lifetime.start.p0(i64 4, ptr %10) #2
  call void @llvm.lifetime.start.p0(i64 4, ptr %11) #2
  call void @llvm.lifetime.start.p0(i64 4, ptr %12) #2
  %19 = load ptr, ptr %6, align 8, !tbaa !4
  %20 = getelementptr inbounds nuw %struct.AVMotionEstContext, ptr %19, i32 0, i32 7
  %21 = load i32, ptr %20, align 4, !tbaa !18
  %22 = load i32, ptr %7, align 4, !tbaa !9
  %23 = load ptr, ptr %6, align 8, !tbaa !4
  %24 = getelementptr inbounds nuw %struct.AVMotionEstContext, ptr %23, i32 0, i32 4
  %25 = load i32, ptr %24, align 8, !tbaa !16
  %26 = sub nsw i32 %22, %25
  %27 = icmp sgt i32 %21, %26
  br i1 %27, label %28, label %32

28:                                               ; preds = %4
  %29 = load ptr, ptr %6, align 8, !tbaa !4
  %30 = getelementptr inbounds nuw %struct.AVMotionEstContext, ptr %29, i32 0, i32 7
  %31 = load i32, ptr %30, align 4, !tbaa !18
  br label %38

32:                                               ; preds = %4
  %33 = load i32, ptr %7, align 4, !tbaa !9
  %34 = load ptr, ptr %6, align 8, !tbaa !4
  %35 = getelementptr inbounds nuw %struct.AVMotionEstContext, ptr %34, i32 0, i32 4
  %36 = load i32, ptr %35, align 8, !tbaa !16
  %37 = sub nsw i32 %33, %36
  br label %38

38:                                               ; preds = %32, %28
  %39 = phi i32 [ %31, %28 ], [ %37, %32 ]
  store i32 %39, ptr %12, align 4, !tbaa !9
  call void @llvm.lifetime.start.p0(i64 4, ptr %13) #2
  %40 = load ptr, ptr %6, align 8, !tbaa !4
  %41 = getelementptr inbounds nuw %struct.AVMotionEstContext, ptr %40, i32 0, i32 9
  %42 = load i32, ptr %41, align 4, !tbaa !20
  %43 = load i32, ptr %8, align 4, !tbaa !9
  %44 = load ptr, ptr %6, align 8, !tbaa !4
  %45 = getelementptr inbounds nuw %struct.AVMotionEstContext, ptr %44, i32 0, i32 4
  %46 = load i32, ptr %45, align 8, !tbaa !16
  %47 = sub nsw i32 %43, %46
  %48 = icmp sgt i32 %42, %47
  br i1 %48, label %49, label %53

49:                                               ; preds = %38
  %50 = load ptr, ptr %6, align 8, !tbaa !4
  %51 = getelementptr inbounds nuw %struct.AVMotionEstContext, ptr %50, i32 0, i32 9
  %52 = load i32, ptr %51, align 4, !tbaa !20
  br label %59

53:                                               ; preds = %38
  %54 = load i32, ptr %8, align 4, !tbaa !9
  %55 = load ptr, ptr %6, align 8, !tbaa !4
  %56 = getelementptr inbounds nuw %struct.AVMotionEstContext, ptr %55, i32 0, i32 4
  %57 = load i32, ptr %56, align 8, !tbaa !16
  %58 = sub nsw i32 %54, %57
  br label %59

59:                                               ; preds = %53, %49
  %60 = phi i32 [ %52, %49 ], [ %58, %53 ]
  store i32 %60, ptr %13, align 4, !tbaa !9
  call void @llvm.lifetime.start.p0(i64 4, ptr %14) #2
  %61 = load i32, ptr %7, align 4, !tbaa !9
  %62 = load ptr, ptr %6, align 8, !tbaa !4
  %63 = getelementptr inbounds nuw %struct.AVMotionEstContext, ptr %62, i32 0, i32 4
  %64 = load i32, ptr %63, align 8, !tbaa !16
  %65 = add nsw i32 %61, %64
  %66 = load ptr, ptr %6, align 8, !tbaa !4
  %67 = getelementptr inbounds nuw %struct.AVMotionEstContext, ptr %66, i32 0, i32 8
  %68 = load i32, ptr %67, align 8, !tbaa !19
  %69 = icmp sgt i32 %65, %68
  br i1 %69, label %70, label %74

70:                                               ; preds = %59
  %71 = load ptr, ptr %6, align 8, !tbaa !4
  %72 = getelementptr inbounds nuw %struct.AVMotionEstContext, ptr %71, i32 0, i32 8
  %73 = load i32, ptr %72, align 8, !tbaa !19
  br label %80

74:                                               ; preds = %59
  %75 = load i32, ptr %7, align 4, !tbaa !9
  %76 = load ptr, ptr %6, align 8, !tbaa !4
  %77 = getelementptr inbounds nuw %struct.AVMotionEstContext, ptr %76, i32 0, i32 4
  %78 = load i32, ptr %77, align 8, !tbaa !16
  %79 = add nsw i32 %75, %78
  br label %80

80:                                               ; preds = %74, %70
  %81 = phi i32 [ %73, %70 ], [ %79, %74 ]
  store i32 %81, ptr %14, align 4, !tbaa !9
  call void @llvm.lifetime.start.p0(i64 4, ptr %15) #2
  %82 = load i32, ptr %8, align 4, !tbaa !9
  %83 = load ptr, ptr %6, align 8, !tbaa !4
  %84 = getelementptr inbounds nuw %struct.AVMotionEstContext, ptr %83, i32 0, i32 4
  %85 = load i32, ptr %84, align 8, !tbaa !16
  %86 = add nsw i32 %82, %85
  %87 = load ptr, ptr %6, align 8, !tbaa !4
  %88 = getelementptr inbounds nuw %struct.AVMotionEstContext, ptr %87, i32 0, i32 10
  %89 = load i32, ptr %88, align 8, !tbaa !21
  %90 = icmp sgt i32 %86, %89
  br i1 %90, label %91, label %95

91:                                               ; preds = %80
  %92 = load ptr, ptr %6, align 8, !tbaa !4
  %93 = getelementptr inbounds nuw %struct.AVMotionEstContext, ptr %92, i32 0, i32 10
  %94 = load i32, ptr %93, align 8, !tbaa !21
  br label %101

95:                                               ; preds = %80
  %96 = load i32, ptr %8, align 4, !tbaa !9
  %97 = load ptr, ptr %6, align 8, !tbaa !4
  %98 = getelementptr inbounds nuw %struct.AVMotionEstContext, ptr %97, i32 0, i32 4
  %99 = load i32, ptr %98, align 8, !tbaa !16
  %100 = add nsw i32 %96, %99
  br label %101

101:                                              ; preds = %95, %91
  %102 = phi i32 [ %94, %91 ], [ %100, %95 ]
  store i32 %102, ptr %15, align 4, !tbaa !9
  call void @llvm.lifetime.start.p0(i64 8, ptr %16) #2
  call void @llvm.lifetime.start.p0(i64 8, ptr %17) #2
  %103 = load ptr, ptr %6, align 8, !tbaa !4
  %104 = getelementptr inbounds nuw %struct.AVMotionEstContext, ptr %103, i32 0, i32 14
  %105 = load ptr, ptr %104, align 8, !tbaa !17
  %106 = load ptr, ptr %6, align 8, !tbaa !4
  %107 = load i32, ptr %7, align 4, !tbaa !9
  %108 = load i32, ptr %8, align 4, !tbaa !9
  %109 = load i32, ptr %7, align 4, !tbaa !9
  %110 = load i32, ptr %8, align 4, !tbaa !9
  %111 = call i64 %105(ptr noundef %106, i32 noundef %107, i32 noundef %108, i32 noundef %109, i32 noundef %110)
  store i64 %111, ptr %17, align 8, !tbaa !26
  %112 = icmp ne i64 %111, 0
  br i1 %112, label %115, label %113

113:                                              ; preds = %101
  %114 = load i64, ptr %17, align 8, !tbaa !26
  store i64 %114, ptr %5, align 8
  store i32 1, ptr %18, align 4
  br label %161

115:                                              ; preds = %101
  %116 = load i32, ptr %13, align 4, !tbaa !9
  store i32 %116, ptr %11, align 4, !tbaa !9
  br label %117

117:                                              ; preds = %156, %115
  %118 = load i32, ptr %11, align 4, !tbaa !9
  %119 = load i32, ptr %15, align 4, !tbaa !9
  %120 = icmp sle i32 %118, %119
  br i1 %120, label %121, label %159

121:                                              ; preds = %117
  %122 = load i32, ptr %12, align 4, !tbaa !9
  store i32 %122, ptr %10, align 4, !tbaa !9
  br label %123

123:                                              ; preds = %152, %121
  %124 = load i32, ptr %10, align 4, !tbaa !9
  %125 = load i32, ptr %14, align 4, !tbaa !9
  %126 = icmp sle i32 %124, %125
  br i1 %126, label %127, label %155

127:                                              ; preds = %123
  br label %128

128:                                              ; preds = %127
  %129 = load ptr, ptr %6, align 8, !tbaa !4
  %130 = getelementptr inbounds nuw %struct.AVMotionEstContext, ptr %129, i32 0, i32 14
  %131 = load ptr, ptr %130, align 8, !tbaa !17
  %132 = load ptr, ptr %6, align 8, !tbaa !4
  %133 = load i32, ptr %7, align 4, !tbaa !9
  %134 = load i32, ptr %8, align 4, !tbaa !9
  %135 = load i32, ptr %10, align 4, !tbaa !9
  %136 = load i32, ptr %11, align 4, !tbaa !9
  %137 = call i64 %131(ptr noundef %132, i32 noundef %133, i32 noundef %134, i32 noundef %135, i32 noundef %136)
  store i64 %137, ptr %16, align 8, !tbaa !26
  %138 = load i64, ptr %16, align 8, !tbaa !26
  %139 = load i64, ptr %17, align 8, !tbaa !26
  %140 = icmp ult i64 %138, %139
  br i1 %140, label %141, label %149

141:                                              ; preds = %128
  %142 = load i64, ptr %16, align 8, !tbaa !26
  store i64 %142, ptr %17, align 8, !tbaa !26
  %143 = load i32, ptr %10, align 4, !tbaa !9
  %144 = load ptr, ptr %9, align 8, !tbaa !32
  %145 = getelementptr inbounds i32, ptr %144, i64 0
  store i32 %143, ptr %145, align 4, !tbaa !9
  %146 = load i32, ptr %11, align 4, !tbaa !9
  %147 = load ptr, ptr %9, align 8, !tbaa !32
  %148 = getelementptr inbounds i32, ptr %147, i64 1
  store i32 %146, ptr %148, align 4, !tbaa !9
  br label %149

149:                                              ; preds = %141, %128
  br label %150

150:                                              ; preds = %149
  br label %151

151:                                              ; preds = %150
  br label %152

152:                                              ; preds = %151
  %153 = load i32, ptr %10, align 4, !tbaa !9
  %154 = add nsw i32 %153, 1
  store i32 %154, ptr %10, align 4, !tbaa !9
  br label %123, !llvm.loop !34

155:                                              ; preds = %123
  br label %156

156:                                              ; preds = %155
  %157 = load i32, ptr %11, align 4, !tbaa !9
  %158 = add nsw i32 %157, 1
  store i32 %158, ptr %11, align 4, !tbaa !9
  br label %117, !llvm.loop !35

159:                                              ; preds = %117
  %160 = load i64, ptr %17, align 8, !tbaa !26
  store i64 %160, ptr %5, align 8
  store i32 1, ptr %18, align 4
  br label %161

161:                                              ; preds = %159, %113
  call void @llvm.lifetime.end.p0(i64 8, ptr %17) #2
  call void @llvm.lifetime.end.p0(i64 8, ptr %16) #2
  call void @llvm.lifetime.end.p0(i64 4, ptr %15) #2
  call void @llvm.lifetime.end.p0(i64 4, ptr %14) #2
  call void @llvm.lifetime.end.p0(i64 4, ptr %13) #2
  call void @llvm.lifetime.end.p0(i64 4, ptr %12) #2
  call void @llvm.lifetime.end.p0(i64 4, ptr %11) #2
  call void @llvm.lifetime.end.p0(i64 4, ptr %10) #2
  %162 = load i64, ptr %5, align 8
  ret i64 %162
}