; Function Attrs: nounwind uwtable
define i64 @ff_me_search_esa(ptr noundef %0, i32 noundef %1, i32 noundef %2, ptr noundef writeonly captures(none) %3) local_unnamed_addr #2 {
  %5 = getelementptr inbounds nuw i8, ptr %0, i64 36
  %6 = load i32, ptr %5, align 4, !tbaa !15
  %7 = getelementptr inbounds nuw i8, ptr %0, i64 24
  %8 = load i32, ptr %7, align 8, !tbaa !13
  %9 = sub nsw i32 %1, %8
  %. = tail call i32 @llvm.smax.i32(i32 %6, i32 %9)
  %10 = getelementptr inbounds nuw i8, ptr %0, i64 44
  %11 = load i32, ptr %10, align 4, !tbaa !17
  %12 = sub nsw i32 %2, %8
  %13 = tail call i32 @llvm.smax.i32(i32 %11, i32 %12)
  %14 = add i32 %8, %1
  %15 = getelementptr inbounds nuw i8, ptr %0, i64 40
  %16 = load i32, ptr %15, align 8, !tbaa !16
  %17 = tail call i32 @llvm.smin.i32(i32 %14, i32 %16)
  %18 = add i32 %8, %2
  %19 = getelementptr inbounds nuw i8, ptr %0, i64 48
  %20 = load i32, ptr %19, align 8, !tbaa !18
  %21 = tail call i32 @llvm.smin.i32(i32 %18, i32 %20)
  %22 = getelementptr inbounds nuw i8, ptr %0, i64 232
  %23 = load ptr, ptr %22, align 8, !tbaa !14
  %24 = tail call i64 %23(ptr noundef %0, i32 noundef %1, i32 noundef %2, i32 noundef %1, i32 noundef %2) #4
  %.not = icmp eq i64 %24, 0
  br i1 %.not, label %.loopexit, label %.preheader69

.preheader69:                                     ; preds = %4
  %.not6773 = icmp sgt i32 %13, %21
  br i1 %.not6773, label %.loopexit, label %.preheader.lr.ph

.preheader.lr.ph:                                 ; preds = %.preheader69
  %.not6870 = icmp sgt i32 %., %17
  %25 = getelementptr inbounds nuw i8, ptr %3, i64 4
  br i1 %.not6870, label %.loopexit, label %.preheader

.preheader:                                       ; preds = %.preheader.lr.ph, %._crit_edge
  %.075 = phi i64 [ %.2, %._crit_edge ], [ %24, %.preheader.lr.ph ]
  %.05574 = phi i32 [ %33, %._crit_edge ], [ %13, %.preheader.lr.ph ]
  br label %26

26:                                               ; preds = %.preheader, %31
  %.172 = phi i64 [ %.075, %.preheader ], [ %.2, %31 ]
  %.05471 = phi i32 [ %., %.preheader ], [ %32, %31 ]
  %27 = load ptr, ptr %22, align 8, !tbaa !14
  %28 = tail call i64 %27(ptr noundef nonnull %0, i32 noundef %1, i32 noundef %2, i32 noundef %.05471, i32 noundef %.05574) #4
  %29 = icmp ult i64 %28, %.172
  br i1 %29, label %30, label %31

30:                                               ; preds = %26
  store i32 %.05471, ptr %3, align 4, !tbaa !26
  store i32 %.05574, ptr %25, align 4, !tbaa !26
  br label %31

31:                                               ; preds = %26, %30
  %.2 = phi i64 [ %28, %30 ], [ %.172, %26 ]
  %32 = add i32 %.05471, 1
  %exitcond.not = icmp eq i32 %.05471, %17
  br i1 %exitcond.not, label %._crit_edge, label %26, !llvm.loop !27

._crit_edge:                                      ; preds = %31
  %33 = add i32 %.05574, 1
  %exitcond78.not = icmp eq i32 %.05574, %21
  br i1 %exitcond78.not, label %.loopexit, label %.preheader, !llvm.loop !28

.loopexit:                                        ; preds = %._crit_edge, %.preheader.lr.ph, %.preheader69, %4
  %.053 = phi i64 [ 0, %4 ], [ %24, %.preheader69 ], [ %24, %.preheader.lr.ph ], [ %.2, %._crit_edge ]
  ret i64 %.053
}